target datalayout = "e-m:e-p270:32:32-p271:32:32-p272:64:64-i64:64-i128:128-f80:128-n8:16:32:64-S128"
target triple = "x86_64-pc-linux-gnu"

%struct.SDL_AtomicInt = type { i32 }
%struct.SDL_HIDAPI_Device = type { ptr, ptr, ptr, ptr, i16, i16, i16, ptr, %struct.SDL_GUID, i32, i32, i32, i32, i16, i16, i8, i32, i32, i32, ptr, ptr, ptr, ptr, %struct.SDL_AtomicInt, i32, ptr, i8, i8, i8, ptr, i32, ptr, ptr }
%struct.SDL_GUID = type { [16 x i8] }

; Function Attrs: nounwind uwtable
define hidden void @HIDAPI_SetDeviceName(ptr noundef %0, ptr noundef %1) #0 {
  %3 = alloca ptr, align 8
  %4 = alloca ptr, align 8
  store ptr %0, ptr %3, align 8
  store ptr %1, ptr %4, align 8
  %5 = load ptr, ptr %4, align 8
  %6 = icmp ne ptr %5, null
  br i1 %6, label %7, label %33

7:                                                ; preds = %2
  %8 = load ptr, ptr %4, align 8
  %9 = load i8, ptr %8, align 1
  %10 = sext i8 %9 to i32
  %11 = icmp ne i32 %10, 0
  br i1 %11, label %12, label %33

12:                                               ; preds = %7
  %13 = load ptr, ptr %4, align 8
  %14 = load ptr, ptr %3, align 8
  %15 = getelementptr inbounds nuw %struct.SDL_HIDAPI_Device, ptr %14, i32 0, i32 0
  %16 = load ptr, ptr %15, align 8
  %17 = call i32 @SDL_strcmp_REAL(ptr noundef %13, ptr noundef %16)
  %18 = icmp ne i32 %17, 0
  br i1 %18, label %19, label %33

19:                                               ; preds = %12
  %20 = load ptr, ptr %3, align 8
  %21 = getelementptr inbounds nuw %struct.SDL_HIDAPI_Device, ptr %20, i32 0, i32 0
  %22 = load ptr, ptr %21, align 8
  call void @SDL_free_REAL(ptr noundef %22)
  %23 = load ptr, ptr %4, align 8
  %24 = call noalias ptr @SDL_strdup_REAL(ptr noundef %23)
  %25 = load ptr, ptr %3, align 8
  %26 = getelementptr inbounds nuw %struct.SDL_HIDAPI_Device, ptr %25, i32 0, i32 0
  store ptr %24, ptr %26, align 8
  %27 = load ptr, ptr %3, align 8
  %28 = getelementptr inbounds nuw %struct.SDL_HIDAPI_Device, ptr %27, i32 0, i32 8
  %29 = load ptr, ptr %4, align 8
  %30 = load ptr, ptr %4, align 8
  %31 = call i64 @SDL_strlen_REAL(ptr noundef %30)
  %32 = call zeroext i16 @SDL_crc16_REAL(i16 noundef zeroext 0, ptr noundef %29, i64 noundef %31)
  call void @SDL_SetJoystickGUIDCRC(ptr noundef %28, i16 noundef zeroext %32)
  br label %33

33:                                               ; preds = %19, %12, %7, %2
  ret void
}