; Function Attrs: nounwind uwtable
define hidden void @HIDAPI_SetDeviceName(ptr noundef %0, ptr noundef %1) local_unnamed_addr #0 {
  %.not = icmp eq ptr %1, null
  br i1 %.not, label %14, label %3

3:                                                ; preds = %2
  %4 = load i8, ptr %1, align 1
  %.not10 = icmp eq i8 %4, 0
  br i1 %.not10, label %14, label %5

5:                                                ; preds = %3
  %6 = load ptr, ptr %0, align 8
  %7 = tail call i32 @SDL_strcmp_REAL(ptr noundef nonnull %1, ptr noundef %6) #9
  %.not11 = icmp eq i32 %7, 0
  br i1 %.not11, label %14, label %8

8:                                                ; preds = %5
  %9 = load ptr, ptr %0, align 8
  tail call void @SDL_free_REAL(ptr noundef %9) #9
  %10 = tail call noalias ptr @SDL_strdup_REAL(ptr noundef nonnull %1) #9
  store ptr %10, ptr %0, align 8
  %11 = getelementptr inbounds nuw i8, ptr %0, i64 48
  %12 = tail call i64 @SDL_strlen_REAL(ptr noundef nonnull %1) #9
  %13 = tail call zeroext i16 @SDL_crc16_REAL(i16 noundef zeroext 0, ptr noundef nonnull %1, i64 noundef %12) #9
  tail call void @SDL_SetJoystickGUIDCRC(ptr noundef nonnull %11, i16 noundef zeroext %13) #9
  br label %14

14:                                               ; preds = %8, %5, %3, %2
  ret void
}